; Function Attrs: mustprogress uwtable
define void @_ZN5faiss33IndexLocalSearchQuantizerFastScanC2Ev(ptr noundef nonnull align 8 dereferenceable(608) %0) unnamed_addr #1 align 2 personality ptr @__gxx_personality_v0 {
  tail call void @_ZN5faiss13IndexFastScanC2Ev(ptr noundef nonnull align 8 dereferenceable(160) %0)
  %2 = getelementptr inbounds nuw i8, ptr %0, i64 144
  store i8 1, ptr %2, align 8, !tbaa !62
  %3 = getelementptr inbounds nuw i8, ptr %0, i64 148
  store i32 1, ptr %3, align 4, !tbaa !76
  %4 = getelementptr inbounds nuw i8, ptr %0, i64 152
  store i64 0, ptr %4, align 8, !tbaa !17
  %5 = getelementptr inbounds nuw i8, ptr %0, i64 25
  store i8 0, ptr %5, align 1, !tbaa !4
  %6 = getelementptr inbounds nuw i8, ptr %0, i64 136
  store ptr null, ptr %6, align 8, !tbaa !26
  store ptr getelementptr inbounds nuw inrange(-16, 200) (i8, ptr @_ZTVN5faiss33IndexLocalSearchQuantizerFastScanE, i64 16), ptr %0, align 8, !tbaa !53
  %7 = getelementptr inbounds nuw i8, ptr %0, i64 160
  invoke void @_ZN5faiss20LocalSearchQuantizerC1Ev(ptr noundef nonnull align 8 dereferenceable(441) %7)
          to label %8 unwind label %9

8:                                                ; preds = %1
  store ptr %7, ptr %6, align 8, !tbaa !26
  ret void

9:                                                ; preds = %1
  %10 = landingpad { ptr, i32 }
          cleanup
  tail call void @_ZN5faiss30IndexAdditiveQuantizerFastScanD2Ev(ptr noundef nonnull align 8 dereferenceable(160) %0) #14
  resume { ptr, i32 } %10
}